; Function Attrs: mustprogress nofree nounwind uwtable
define void @_ZN17double_conversion6Bignum19AssignDecimalStringENS_6VectorIKcEE(ptr noundef nonnull align 4 captures(none) dereferenceable(516) initializes((0, 4)) %0, ptr readonly captures(none) %1, i32 %2) local_unnamed_addr #5 align 2 {
  %4 = alloca %"class.double_conversion::Bignum", align 4
  %5 = alloca %"class.double_conversion::Bignum", align 4
  store i16 0, ptr %0, align 4, !tbaa !3
  %6 = getelementptr inbounds nuw i8, ptr %0, i64 2
  store i16 0, ptr %6, align 2, !tbaa !8
  %7 = icmp sgt i32 %2, 18
  br i1 %7, label %.lr.ph, label %._crit_edge

.lr.ph:                                           ; preds = %3
  %8 = getelementptr inbounds nuw i8, ptr %5, i64 4
  br label %9

9:                                                ; preds = %.lr.ph, %_ZN17double_conversion6Bignum9AddUInt64Em.exit
  %indvars.iv37 = phi i64 [ 0, %.lr.ph ], [ %indvars.iv.next38, %_ZN17double_conversion6Bignum9AddUInt64Em.exit ]
  %indvars.iv = phi i64 [ 19, %.lr.ph ], [ %indvars.iv.next, %_ZN17double_conversion6Bignum9AddUInt64Em.exit ]
  %.032 = phi i32 [ %2, %.lr.ph ], [ %16, %_ZN17double_conversion6Bignum9AddUInt64Em.exit ]
  br label %.lr.ph.i

.lr.ph.i:                                         ; preds = %.lr.ph.i, %9
  %indvars.iv.i = phi i64 [ %indvars.iv37, %9 ], [ %indvars.iv.next.i, %.lr.ph.i ]
  %.011.i = phi i64 [ 0, %9 ], [ %15, %.lr.ph.i ]
  %10 = getelementptr inbounds nuw i8, ptr %1, i64 %indvars.iv.i
  %11 = load i8, ptr %10, align 1, !tbaa !14
  %12 = sext i8 %11 to i64
  %13 = mul i64 %.011.i, 10
  %14 = add i64 %13, -48
  %15 = add i64 %14, %12
  %indvars.iv.next.i = add nuw nsw i64 %indvars.iv.i, 1
  %exitcond.not = icmp eq i64 %indvars.iv.next.i, %indvars.iv
  br i1 %exitcond.not, label %_ZN17double_conversionL10ReadUInt64ENS_6VectorIKcEEii.exit, label %.lr.ph.i, !llvm.loop !15

_ZN17double_conversionL10ReadUInt64ENS_6VectorIKcEEii.exit: ; preds = %.lr.ph.i
  %indvars.iv.next38 = add nuw nsw i64 %indvars.iv37, 19
  %16 = add nsw i32 %.032, -19
  tail call void @_ZN17double_conversion6Bignum20MultiplyByPowerOfTenEi(ptr noundef nonnull align 4 dereferenceable(516) %0, i32 noundef 19)
  %17 = icmp eq i64 %15, 0
  br i1 %17, label %_ZN17double_conversion6Bignum9AddUInt64Em.exit, label %.lr.ph.i.i

.lr.ph.i.i:                                       ; preds = %_ZN17double_conversionL10ReadUInt64ENS_6VectorIKcEEii.exit
  call void @llvm.lifetime.start.p0(i64 516, ptr nonnull %5) #11
  store i32 0, ptr %5, align 4
  br label %18

18:                                               ; preds = %18, %.lr.ph.i.i
  %indvars.iv.i.i = phi i64 [ 0, %.lr.ph.i.i ], [ %indvars.iv.next.i.i, %18 ]
  %.057.i.i = phi i64 [ %15, %.lr.ph.i.i ], [ %22, %18 ]
  %19 = trunc i64 %.057.i.i to i32
  %20 = and i32 %19, 268435455
  %21 = getelementptr inbounds nuw [128 x i32], ptr %8, i64 0, i64 %indvars.iv.i.i
  store i32 %20, ptr %21, align 4, !tbaa !9
  %22 = lshr i64 %.057.i.i, 28
  %indvars.iv.next.i.i = add nuw nsw i64 %indvars.iv.i.i, 1
  %.not.i.i = icmp ult i64 %.057.i.i, 268435456
  br i1 %.not.i.i, label %_ZN17double_conversion6Bignum12AssignUInt64Em.exit.i, label %18, !llvm.loop !11

_ZN17double_conversion6Bignum12AssignUInt64Em.exit.i: ; preds = %18
  %indvars.i = trunc i64 %indvars.iv.next.i.i to i16
  store i16 %indvars.i, ptr %5, align 4, !tbaa !3
  call void @_ZN17double_conversion6Bignum9AddBignumERKS0_(ptr noundef nonnull align 4 dereferenceable(516) %0, ptr noundef nonnull align 4 dereferenceable(516) %5)
  call void @llvm.lifetime.end.p0(i64 516, ptr nonnull %5) #11
  br label %_ZN17double_conversion6Bignum9AddUInt64Em.exit

_ZN17double_conversion6Bignum9AddUInt64Em.exit:   ; preds = %_ZN17double_conversionL10ReadUInt64ENS_6VectorIKcEEii.exit, %_ZN17double_conversion6Bignum12AssignUInt64Em.exit.i
  %23 = icmp sgt i32 %.032, 37
  %indvars.iv.next = add nuw nsw i64 %indvars.iv, 19
  br i1 %23, label %9, label %._crit_edge.loopexit, !llvm.loop !16

._crit_edge.loopexit:                             ; preds = %_ZN17double_conversion6Bignum9AddUInt64Em.exit
  %24 = trunc nuw nsw i64 %indvars.iv.next38 to i32
  br label %._crit_edge

._crit_edge:                                      ; preds = %._crit_edge.loopexit, %3
  %.012.lcssa = phi i32 [ 0, %3 ], [ %24, %._crit_edge.loopexit ]
  %.0.lcssa = phi i32 [ %2, %3 ], [ %16, %._crit_edge.loopexit ]
  %25 = icmp sgt i32 %.0.lcssa, 0
  br i1 %25, label %.lr.ph.preheader.i, label %_ZN17double_conversionL10ReadUInt64ENS_6VectorIKcEEii.exit17.thread

_ZN17double_conversionL10ReadUInt64ENS_6VectorIKcEEii.exit17.thread: ; preds = %._crit_edge
  tail call void @_ZN17double_conversion6Bignum20MultiplyByPowerOfTenEi(ptr noundef nonnull align 4 dereferenceable(516) %0, i32 noundef %.0.lcssa)
  br label %_ZN17double_conversion6Bignum9AddUInt64Em.exit25

.lr.ph.preheader.i:                               ; preds = %._crit_edge
  %26 = add nuw nsw i32 %.0.lcssa, %.012.lcssa
  %27 = zext nneg i32 %.012.lcssa to i64
  %28 = zext nneg i32 %26 to i64
  br label %.lr.ph.i13

.lr.ph.i13:                                       ; preds = %.lr.ph.i13, %.lr.ph.preheader.i
  %indvars.iv.i14 = phi i64 [ %27, %.lr.ph.preheader.i ], [ %indvars.iv.next.i16, %.lr.ph.i13 ]
  %.011.i15 = phi i64 [ 0, %.lr.ph.preheader.i ], [ %34, %.lr.ph.i13 ]
  %29 = getelementptr inbounds nuw i8, ptr %1, i64 %indvars.iv.i14
  %30 = load i8, ptr %29, align 1, !tbaa !14
  %31 = sext i8 %30 to i64
  %32 = mul i64 %.011.i15, 10
  %33 = add i64 %32, -48
  %34 = add i64 %33, %31
  %indvars.iv.next.i16 = add nuw nsw i64 %indvars.iv.i14, 1
  %35 = icmp samesign ult i64 %indvars.iv.next.i16, %28
  br i1 %35, label %.lr.ph.i13, label %_ZN17double_conversionL10ReadUInt64ENS_6VectorIKcEEii.exit17, !llvm.loop !15

_ZN17double_conversionL10ReadUInt64ENS_6VectorIKcEEii.exit17: ; preds = %.lr.ph.i13
  tail call void @_ZN17double_conversion6Bignum20MultiplyByPowerOfTenEi(ptr noundef nonnull align 4 dereferenceable(516) %0, i32 noundef %.0.lcssa)
  %36 = icmp eq i64 %34, 0
  br i1 %36, label %_ZN17double_conversion6Bignum9AddUInt64Em.exit25, label %.lr.ph.i.i18

.lr.ph.i.i18:                                     ; preds = %_ZN17double_conversionL10ReadUInt64ENS_6VectorIKcEEii.exit17
  call void @llvm.lifetime.start.p0(i64 516, ptr nonnull %4) #11
  %37 = getelementptr inbounds nuw i8, ptr %4, i64 4
  store i32 0, ptr %4, align 4
  br label %38

38:                                               ; preds = %38, %.lr.ph.i.i18
  %indvars.iv.i.i19 = phi i64 [ 0, %.lr.ph.i.i18 ], [ %indvars.iv.next.i.i21, %38 ]
  %.057.i.i20 = phi i64 [ %34, %.lr.ph.i.i18 ], [ %42, %38 ]
  %39 = trunc i64 %.057.i.i20 to i32
  %40 = and i32 %39, 268435455
  %41 = getelementptr inbounds nuw [128 x i32], ptr %37, i64 0, i64 %indvars.iv.i.i19
  store i32 %40, ptr %41, align 4, !tbaa !9
  %42 = lshr i64 %.057.i.i20, 28
  %indvars.iv.next.i.i21 = add nuw nsw i64 %indvars.iv.i.i19, 1
  %.not.i.i22 = icmp ult i64 %.057.i.i20, 268435456
  br i1 %.not.i.i22, label %_ZN17double_conversion6Bignum12AssignUInt64Em.exit.i23, label %38, !llvm.loop !11

_ZN17double_conversion6Bignum12AssignUInt64Em.exit.i23: ; preds = %38
  %indvars.i24 = trunc i64 %indvars.iv.next.i.i21 to i16
  store i16 %indvars.i24, ptr %4, align 4, !tbaa !3
  call void @_ZN17double_conversion6Bignum9AddBignumERKS0_(ptr noundef nonnull align 4 dereferenceable(516) %0, ptr noundef nonnull align 4 dereferenceable(516) %4)
  call void @llvm.lifetime.end.p0(i64 516, ptr nonnull %4) #11
  br label %_ZN17double_conversion6Bignum9AddUInt64Em.exit25

_ZN17double_conversion6Bignum9AddUInt64Em.exit25: ; preds = %_ZN17double_conversionL10ReadUInt64ENS_6VectorIKcEEii.exit17.thread, %_ZN17double_conversionL10ReadUInt64ENS_6VectorIKcEEii.exit17, %_ZN17double_conversion6Bignum12AssignUInt64Em.exit.i23
  %.pr.i = load i16, ptr %0, align 4, !tbaa !3
  %43 = icmp sgt i16 %.pr.i, 0
  br i1 %43, label %.lr.ph.i26, label %.critedge.i

.lr.ph.i26:                                       ; preds = %_ZN17double_conversion6Bignum9AddUInt64Em.exit25
  %44 = getelementptr inbounds nuw i8, ptr %0, i64 4
  br label %45

45:                                               ; preds = %53, %.lr.ph.i26
  %46 = phi i16 [ %.pr.i, %.lr.ph.i26 ], [ %54, %53 ]
  %47 = zext nneg i16 %46 to i64
  %48 = add nuw nsw i64 %47, 4294967295
  %49 = and i64 %48, 4294967295
  %50 = getelementptr inbounds nuw [128 x i32], ptr %44, i64 0, i64 %49
  %51 = load i32, ptr %50, align 4, !tbaa !9
  %52 = icmp eq i32 %51, 0
  br i1 %52, label %53, label %_ZN17double_conversion6Bignum5ClampEv.exit

53:                                               ; preds = %45
  %54 = add nsw i16 %46, -1
  store i16 %54, ptr %0, align 4, !tbaa !3
  %55 = icmp sgt i16 %46, 1
  br i1 %55, label %45, label %.critedge.thread3.i, !llvm.loop !17

.critedge.i:                                      ; preds = %_ZN17double_conversion6Bignum9AddUInt64Em.exit25
  %56 = icmp eq i16 %.pr.i, 0
  br i1 %56, label %.critedge.thread3.i, label %_ZN17double_conversion6Bignum5ClampEv.exit

.critedge.thread3.i:                              ; preds = %53, %.critedge.i
  store i16 0, ptr %6, align 2, !tbaa !8
  br label %_ZN17double_conversion6Bignum5ClampEv.exit

_ZN17double_conversion6Bignum5ClampEv.exit:       ; preds = %45, %.critedge.i, %.critedge.thread3.i
  ret void
}